target datalayout = "e-m:e-p270:32:32-p271:32:32-p272:64:64-i64:64-i128:128-f80:128-n8:16:32:64-S128"
target triple = "x86_64-pc-linux-gnu"

@hf_eigrp_ipv4_nexthop = internal global i32 0, align 4
@hf_eigrp_ipv6_nexthop = internal global i32 0, align 4
@hf_eigrp_ipx_nexthop_net = internal global i32 0, align 4
@hf_eigrp_ipx_nexthop_host = internal global i32 0, align 4

; Function Attrs: null_pointer_is_valid sspstrong uwtable
define internal i32 @dissect_eigrp_nexthop(ptr noundef %0, ptr noundef %1, i16 noundef zeroext %2, i32 noundef %3) #0 {
  %5 = alloca ptr, align 8
  %6 = alloca ptr, align 8
  %7 = alloca i16, align 2
  %8 = alloca i32, align 4
  store ptr %0, ptr %5, align 8
  store ptr %1, ptr %6, align 8
  store i16 %2, ptr %7, align 2
  store i32 %3, ptr %8, align 4
  %9 = load i16, ptr %7, align 2
  %10 = zext i16 %9 to i32
  switch i32 %10, label %42 [
    i32 16385, label %11
    i32 1, label %11
    i32 16386, label %19
    i32 2, label %19
    i32 11, label %27
    i32 16384, label %43
  ]

11:                                               ; preds = %4, %4
  %12 = load ptr, ptr %5, align 8
  %13 = load i32, ptr @hf_eigrp_ipv4_nexthop, align 4
  %14 = load ptr, ptr %6, align 8
  %15 = load i32, ptr %8, align 4
  %16 = call ptr @proto_tree_add_item(ptr noundef %12, i32 noundef %13, ptr noundef %14, i32 noundef %15, i32 noundef 4, i32 noundef 0)
  %17 = load i32, ptr %8, align 4
  %18 = add i32 %17, 4
  store i32 %18, ptr %8, align 4
  br label %43

19:                                               ; preds = %4, %4
  %20 = load ptr, ptr %5, align 8
  %21 = load i32, ptr @hf_eigrp_ipv6_nexthop, align 4
  %22 = load ptr, ptr %6, align 8
  %23 = load i32, ptr %8, align 4
  %24 = call ptr @proto_tree_add_item(ptr noundef %20, i32 noundef %21, ptr noundef %22, i32 noundef %23, i32 noundef 16, i32 noundef 0)
  %25 = load i32, ptr %8, align 4
  %26 = add i32 %25, 16
  store i32 %26, ptr %8, align 4
  br label %43

27:                                               ; preds = %4
  %28 = load ptr, ptr %5, align 8
  %29 = load i32, ptr @hf_eigrp_ipx_nexthop_net, align 4
  %30 = load ptr, ptr %6, align 8
  %31 = load i32, ptr %8, align 4
  %32 = call ptr @proto_tree_add_item(ptr noundef %28, i32 noundef %29, ptr noundef %30, i32 noundef %31, i32 noundef 4, i32 noundef 0)
  %33 = load i32, ptr %8, align 4
  %34 = add i32 %33, 4
  store i32 %34, ptr %8, align 4
  %35 = load ptr, ptr %5, align 8
  %36 = load i32, ptr @hf_eigrp_ipx_nexthop_host, align 4
  %37 = load ptr, ptr %6, align 8
  %38 = load i32, ptr %8, align 4
  %39 = call ptr @proto_tree_add_item(ptr noundef %35, i32 noundef %36, ptr noundef %37, i32 noundef %38, i32 noundef 6, i32 noundef 0)
  %40 = load i32, ptr %8, align 4
  %41 = add i32 %40, 6
  store i32 %41, ptr %8, align 4
  br label %43

42:                                               ; preds = %4
  br label %43

43:                                               ; preds = %42, %4, %27, %19, %11
  %44 = load i32, ptr %8, align 4
  ret i32 %44
}