; Function Attrs: null_pointer_is_valid sspstrong uwtable
define internal fastcc noundef i32 @dissect_eigrp_nexthop(ptr noundef %0, ptr noundef %1, i16 noundef zeroext %2, i32 noundef %3) unnamed_addr #0 {
  switch i16 %2, label %20 [
    i16 16385, label %5
    i16 1, label %5
    i16 16386, label %9
    i16 2, label %9
    i16 11, label %13
  ]

5:                                                ; preds = %4, %4
  %6 = load i32, ptr @hf_eigrp_ipv4_nexthop, align 4
  %7 = tail call ptr @proto_tree_add_item(ptr noundef %0, i32 noundef %6, ptr noundef %1, i32 noundef %3, i32 noundef 4, i32 noundef 0)
  %8 = add i32 %3, 4
  br label %20

9:                                                ; preds = %4, %4
  %10 = load i32, ptr @hf_eigrp_ipv6_nexthop, align 4
  %11 = tail call ptr @proto_tree_add_item(ptr noundef %0, i32 noundef %10, ptr noundef %1, i32 noundef %3, i32 noundef 16, i32 noundef 0)
  %12 = add i32 %3, 16
  br label %20

13:                                               ; preds = %4
  %14 = load i32, ptr @hf_eigrp_ipx_nexthop_net, align 4
  %15 = tail call ptr @proto_tree_add_item(ptr noundef %0, i32 noundef %14, ptr noundef %1, i32 noundef %3, i32 noundef 4, i32 noundef 0)
  %16 = add i32 %3, 4
  %17 = load i32, ptr @hf_eigrp_ipx_nexthop_host, align 4
  %18 = tail call ptr @proto_tree_add_item(ptr noundef %0, i32 noundef %17, ptr noundef %1, i32 noundef %16, i32 noundef 6, i32 noundef 0)
  %19 = add i32 %3, 10
  br label %20

20:                                               ; preds = %4, %13, %9, %5
  %.0 = phi i32 [ %3, %4 ], [ %19, %13 ], [ %12, %9 ], [ %8, %5 ]
  ret i32 %.0
}